; Function Attrs: mustprogress uwtable
define hidden void @_ZN4cvc58internal6theory22TheoryInferenceManager16notifyInConflictEv(ptr nocapture noundef nonnull readonly align 8 dereferenceable(256) %this) unnamed_addr #3 align 2 {
entry:
  %d_theoryState = getelementptr inbounds i8, ptr %this, i64 24
  %0 = load ptr, ptr %d_theoryState, align 8
  %vtable = load ptr, ptr %0, align 8
  %vfn = getelementptr inbounds i8, ptr %vtable, i64 64
  %1 = load ptr, ptr %vfn, align 8
  tail call void %1(ptr noundef nonnull align 8 dereferenceable(80) %0)
  ret void
}